(lp0
(dp1
Vdomain
p2
V.twitter.com
p3
sVsecure
p4
I00
sVvalue
p5
V1
p6
sVexpiry
p7
F1793562474.448881
sVpath
p8
V/
p9
sVhttpOnly
p10
I00
sVname
p11
Vremember_checked_on
p12
sa(dp13
Vdomain
p14
V.twitter.com
p15
sVname
p16
V_twitter_sess
p17
sVvalue
p18
VBAh7CiIKZmxhc2hJQzonQWN0aW9uQ29udHJvbGxlcjo6Rmxhc2g6OkZsYXNo%250ASGFzaHsABjoKQHVzZWR7ADoPY3JlYXRlZF9hdGwrCIG7uytYAToMY3NyZl9p%250AZCIlMzg2MGU0N2ZmOGY0MzAzOGEzY2EzZTc3NzdmNTA4ZGI6B2lkIiUwYzI2%250AMjJiZTU2MjU3MjVkMzlhMDllZTg2NGNiN2U1NToJdXNlcmkETkrkBQ%253D%253D--00a99e61c3b8e07768f43c578e811692e9497289
p19
sVpath
p20
g9
sVhttpOnly
p21
I01
sVsecure
p22
I01
sa(dp23
Vdomain
p24
Vtwitter.com
p25
sVname
p26
Vlang
p27
sVvalue
p28
Ven
p29
sVpath
p30
g9
sVhttpOnly
p31
I00
sVsecure
p32
I00
sa(dp33
Vdomain
p34
V.twitter.com
p35
sVsecure
p36
I00
sVvalue
p37
V"v3:1478202474548925238708019"
p38
sVexpiry
p39
F1525463274.129877
sVpath
p40
g9
sVhttpOnly
p41
I00
sVname
p42
Vpid
p43
sa(dp44
Vdomain
p45
V.twitter.com
p46
sVsecure
p47
I01
sVvalue
p48
V"u=98847310"
p49
sVexpiry
p50
F1793562474.448911
sVpath
p51
g9
sVhttpOnly
p52
I00
sVname
p53
Vtwid
p54
sa(dp55
Vdomain
p56
V.twitter.com
p57
sVsecure
p58
I01
sVvalue
p59
VSvoLy3ExG4KkU4lDugnKXPocTe3toViwAy8wTmFk
p60
sVexpiry
p61
F1525463274.448812
sVpath
p62
g9
sVhttpOnly
p63
I01
sVname
p64
Vkdt
p65
sa(dp66
Vdomain
p67
V.twitter.com
p68
sVsecure
p69
I01
sVvalue
p70
V043094244175949b290dc5ea13a242c7765d9f59
p71
sVexpiry
p72
F1793562474.448958
sVpath
p73
g9
sVhttpOnly
p74
I01
sVname
p75
Vauth_token
p76
sa(dp77
Vdomain
p78
V.twitter.com
p79
sVsecure
p80
I00
sVvalue
p81
g6
sVexpiry
p82
I1478203074
sVpath
p83
g9
sVhttpOnly
p84
I00
sVname
p85
V_gat
p86
sa(dp87
Vdomain
p88
V.twitter.com
p89
sVsecure
p90
I00
sVvalue
p91
VGA1.2.1645051542.1478202474
p92
sVexpiry
p93
I1541274475
sVpath
p94
g9
sVhttpOnly
p95
I00
sVname
p96
V_ga
p97
sa(dp98
Vdomain
p99
V.twitter.com
p100
sVsecure
p101
I00
sVvalue
p102
Vv1%3A147820247334417786
p103
sVexpiry
p104
F1541274473.39727
sVpath
p105
g9
sVhttpOnly
p106
I00
sVname
p107
Vguest_id
p108
sa.